ccopy_reg
_reconstructor
p0
(cgame_tree_classes
GameSlots
p1
c__builtin__
object
p2
Ntp3
Rp4
(dp5
S'data'
p6
(dp7
S'24'
p8
g0
(cgame_tree_classes
Team
p9
g2
Ntp10
Rp11
(dp12
S'team_id'
p13
S'25'
p14
sbsS'25'
p15
g0
(g9
g2
Ntp16
Rp17
(dp18
g13
S'26'
p19
sbsS'26'
p20
g0
(g9
g2
Ntp21
Rp22
(dp23
g13
S'27'
p24
sbsS'27'
p25
g0
(g9
g2
Ntp26
Rp27
(dp28
g13
S'28'
p29
sbsS'20'
p30
g0
(g9
g2
Ntp31
Rp32
(dp33
g13
S'21'
p34
sbsS'21'
p35
g0
(g9
g2
Ntp36
Rp37
(dp38
g13
S'22'
p39
sbsS'22'
p40
g0
(g9
g2
Ntp41
Rp42
(dp43
g13
S'23'
p44
sbsS'23'
p45
g0
(g9
g2
Ntp46
Rp47
(dp48
g13
S'24'
p49
sbsS'28'
p50
g0
(g9
g2
Ntp51
Rp52
(dp53
g13
S'29'
p54
sbsS'29'
p55
g0
(g9
g2
Ntp56
Rp57
(dp58
g13
S'30'
p59
sbsS'0'
p60
g0
(g9
g2
Ntp61
Rp62
(dp63
g13
S'1'
p64
sbsS'4'
p65
g0
(g9
g2
Ntp66
Rp67
(dp68
g13
S'5'
p69
sbsS'8'
p70
g0
(g9
g2
Ntp71
Rp72
(dp73
g13
S'9'
p74
sbsS'119'
p75
g0
(cgame_tree_classes
WinnerOf
p76
g2
Ntp77
Rp78
(dp79
S'game_slot1'
p80
I110
sS'game_slot2'
p81
I111
sbsS'120'
p82
g0
(g76
g2
Ntp83
Rp84
(dp85
g80
I112
sg81
I113
sbsS'121'
p86
g0
(g76
g2
Ntp87
Rp88
(dp89
g80
I114
sg81
I115
sbsS'122'
p90
g0
(g76
g2
Ntp91
Rp92
(dp93
g80
I116
sg81
I117
sbsS'123'
p94
g0
(g76
g2
Ntp95
Rp96
(dp97
g80
I118
sg81
I119
sbsS'124'
p98
g0
(g76
g2
Ntp99
Rp100
(dp101
g80
I120
sg81
I121
sbsS'125'
p102
g0
(g76
g2
Ntp103
Rp104
(dp105
g80
I122
sg81
I123
sbsS'126'
p106
g0
(g76
g2
Ntp107
Rp108
(dp109
g80
I124
sg81
I125
sbsS'118'
p110
g0
(g76
g2
Ntp111
Rp112
(dp113
g80
I108
sg81
I109
sbsS'59'
p114
g0
(g9
g2
Ntp115
Rp116
(dp117
g13
S'60'
p118
sbsS'58'
p119
g0
(g9
g2
Ntp120
Rp121
(dp122
g13
S'59'
p123
sbsS'55'
p124
g0
(g9
g2
Ntp125
Rp126
(dp127
g13
S'56'
p128
sbsS'54'
p129
g0
(g9
g2
Ntp130
Rp131
(dp132
g13
S'55'
p133
sbsS'57'
p134
g0
(g9
g2
Ntp135
Rp136
(dp137
g13
S'58'
p138
sbsS'56'
p139
g0
(g9
g2
Ntp140
Rp141
(dp142
g13
S'57'
p143
sbsS'51'
p144
g0
(g9
g2
Ntp145
Rp146
(dp147
g13
S'52'
p148
sbsS'50'
p149
g0
(g9
g2
Ntp150
Rp151
(dp152
g13
S'51'
p153
sbsS'53'
p154
g0
(g9
g2
Ntp155
Rp156
(dp157
g13
S'54'
p158
sbsS'52'
p159
g0
(g9
g2
Ntp160
Rp161
(dp162
g13
S'53'
p163
sbsS'115'
p164
g0
(g76
g2
Ntp165
Rp166
(dp167
g80
I102
sg81
I103
sbsS'114'
p168
g0
(g76
g2
Ntp169
Rp170
(dp171
g80
I100
sg81
I101
sbsS'88'
p172
g0
(g76
g2
Ntp173
Rp174
(dp175
g80
I48
sg81
I49
sbsS'89'
p176
g0
(g76
g2
Ntp177
Rp178
(dp179
g80
I50
sg81
I51
sbsS'111'
p180
g0
(g76
g2
Ntp181
Rp182
(dp183
g80
I94
sg81
I95
sbsS'110'
p184
g0
(g76
g2
Ntp185
Rp186
(dp187
g80
I92
sg81
I93
sbsS'113'
p188
g0
(g76
g2
Ntp189
Rp190
(dp191
g80
I98
sg81
I99
sbsS'112'
p192
g0
(g76
g2
Ntp193
Rp194
(dp195
g80
I96
sg81
I97
sbsS'82'
p196
g0
(g76
g2
Ntp197
Rp198
(dp199
g80
I36
sg81
I37
sbsS'83'
p200
g0
(g76
g2
Ntp201
Rp202
(dp203
g80
I38
sg81
I39
sbsS'80'
p204
g0
(g76
g2
Ntp205
Rp206
(dp207
g80
I32
sg81
I33
sbsS'81'
p208
g0
(g76
g2
Ntp209
Rp210
(dp211
g80
I34
sg81
I35
sbsS'86'
p212
g0
(g76
g2
Ntp213
Rp214
(dp215
g80
I44
sg81
I45
sbsS'87'
p216
g0
(g76
g2
Ntp217
Rp218
(dp219
g80
I46
sg81
I47
sbsS'84'
p220
g0
(g76
g2
Ntp221
Rp222
(dp223
g80
I40
sg81
I41
sbsS'85'
p224
g0
(g76
g2
Ntp225
Rp226
(dp227
g80
I42
sg81
I43
sbsS'3'
p228
g0
(g9
g2
Ntp229
Rp230
(dp231
g13
g65
sbsS'7'
p232
g0
(g9
g2
Ntp233
Rp234
(dp235
g13
g70
sbsS'108'
p236
g0
(g76
g2
Ntp237
Rp238
(dp239
g80
I88
sg81
I89
sbsS'109'
p240
g0
(g76
g2
Ntp241
Rp242
(dp243
g80
I90
sg81
I91
sbsS'102'
p244
g0
(g76
g2
Ntp245
Rp246
(dp247
g80
I76
sg81
I77
sbsS'103'
p248
g0
(g76
g2
Ntp249
Rp250
(dp251
g80
I78
sg81
I79
sbsS'100'
p252
g0
(g76
g2
Ntp253
Rp254
(dp255
g80
I72
sg81
I73
sbsS'101'
p256
g0
(g76
g2
Ntp257
Rp258
(dp259
g80
I74
sg81
I75
sbsS'106'
p260
g0
(g76
g2
Ntp261
Rp262
(dp263
g80
I84
sg81
I85
sbsS'107'
p264
g0
(g76
g2
Ntp265
Rp266
(dp267
g80
I86
sg81
I87
sbsS'104'
p268
g0
(g76
g2
Ntp269
Rp270
(dp271
g80
I80
sg81
I81
sbsS'105'
p272
g0
(g76
g2
Ntp273
Rp274
(dp275
g80
I82
sg81
I83
sbsS'39'
p276
g0
(g9
g2
Ntp277
Rp278
(dp279
g13
S'40'
p280
sbsS'38'
p281
g0
(g9
g2
Ntp282
Rp283
(dp284
g13
S'39'
p285
sbsS'33'
p286
g0
(g9
g2
Ntp287
Rp288
(dp289
g13
S'34'
p290
sbsS'32'
p291
g0
(g9
g2
Ntp292
Rp293
(dp294
g13
S'33'
p295
sbsS'31'
p296
g0
(g9
g2
Ntp297
Rp298
(dp299
g13
S'32'
p300
sbsS'30'
p301
g0
(g9
g2
Ntp302
Rp303
(dp304
g13
S'31'
p305
sbsS'37'
p306
g0
(g9
g2
Ntp307
Rp308
(dp309
g13
S'38'
p310
sbsS'36'
p311
g0
(g9
g2
Ntp312
Rp313
(dp314
g13
S'37'
p315
sbsS'35'
p316
g0
(g9
g2
Ntp317
Rp318
(dp319
g13
S'36'
p320
sbsS'34'
p321
g0
(g9
g2
Ntp322
Rp323
(dp324
g13
S'35'
p325
sbsS'60'
p326
g0
(g9
g2
Ntp327
Rp328
(dp329
g13
S'61'
p330
sbsS'61'
p331
g0
(g9
g2
Ntp332
Rp333
(dp334
g13
S'62'
p335
sbsS'62'
p336
g0
(g9
g2
Ntp337
Rp338
(dp339
g13
S'63'
p340
sbsS'63'
p341
g0
(g9
g2
Ntp342
Rp343
(dp344
g13
S'64'
p345
sbsS'64'
p346
g0
(g76
g2
Ntp347
Rp348
(dp349
g80
I0
sg81
I1
sbsS'65'
p350
g0
(g76
g2
Ntp351
Rp352
(dp353
g80
I2
sg81
I3
sbsS'66'
p354
g0
(g76
g2
Ntp355
Rp356
(dp357
g80
I4
sg81
I5
sbsS'67'
p358
g0
(g76
g2
Ntp359
Rp360
(dp361
g80
I6
sg81
I7
sbsS'68'
p362
g0
(g76
g2
Ntp363
Rp364
(dp365
g80
I8
sg81
I9
sbsS'69'
p366
g0
(g76
g2
Ntp367
Rp368
(dp369
g80
I10
sg81
I11
sbsS'2'
p370
g0
(g9
g2
Ntp371
Rp372
(dp373
g13
g228
sbsS'6'
p374
g0
(g9
g2
Ntp375
Rp376
(dp377
g13
g232
sbsS'99'
p378
g0
(g76
g2
Ntp379
Rp380
(dp381
g80
I70
sg81
I71
sbsS'98'
p382
g0
(g76
g2
Ntp383
Rp384
(dp385
g80
I68
sg81
I69
sbsS'91'
p386
g0
(g76
g2
Ntp387
Rp388
(dp389
g80
I54
sg81
I55
sbsS'90'
p390
g0
(g76
g2
Ntp391
Rp392
(dp393
g80
I52
sg81
I53
sbsS'93'
p394
g0
(g76
g2
Ntp395
Rp396
(dp397
g80
I58
sg81
I59
sbsS'92'
p398
g0
(g76
g2
Ntp399
Rp400
(dp401
g80
I56
sg81
I57
sbsS'95'
p402
g0
(g76
g2
Ntp403
Rp404
(dp405
g80
I62
sg81
I63
sbsS'94'
p406
g0
(g76
g2
Ntp407
Rp408
(dp409
g80
I60
sg81
I61
sbsS'97'
p410
g0
(g76
g2
Ntp411
Rp412
(dp413
g80
I66
sg81
I67
sbsS'96'
p414
g0
(g76
g2
Ntp415
Rp416
(dp417
g80
I64
sg81
I65
sbsS'11'
p418
g0
(g9
g2
Ntp419
Rp420
(dp421
g13
S'12'
p422
sbsS'10'
p423
g0
(g9
g2
Ntp424
Rp425
(dp426
g13
S'11'
p427
sbsS'13'
p428
g0
(g9
g2
Ntp429
Rp430
(dp431
g13
S'14'
p432
sbsS'12'
p433
g0
(g9
g2
Ntp434
Rp435
(dp436
g13
S'13'
p437
sbsS'15'
p438
g0
(g9
g2
Ntp439
Rp440
(dp441
g13
S'16'
p442
sbsS'14'
p443
g0
(g9
g2
Ntp444
Rp445
(dp446
g13
S'15'
p447
sbsS'17'
p448
g0
(g9
g2
Ntp449
Rp450
(dp451
g13
S'18'
p452
sbsS'16'
p453
g0
(g9
g2
Ntp454
Rp455
(dp456
g13
S'17'
p457
sbsS'19'
p458
g0
(g9
g2
Ntp459
Rp460
(dp461
g13
S'20'
p462
sbsS'18'
p463
g0
(g9
g2
Ntp464
Rp465
(dp466
g13
S'19'
p467
sbsS'117'
p468
g0
(g76
g2
Ntp469
Rp470
(dp471
g80
I106
sg81
I107
sbsS'116'
p472
g0
(g76
g2
Ntp473
Rp474
(dp475
g80
I104
sg81
I105
sbsS'48'
p476
g0
(g9
g2
Ntp477
Rp478
(dp479
g13
S'49'
p480
sbsS'49'
p481
g0
(g9
g2
Ntp482
Rp483
(dp484
g13
S'50'
p485
sbsS'46'
p486
g0
(g9
g2
Ntp487
Rp488
(dp489
g13
S'47'
p490
sbsS'47'
p491
g0
(g9
g2
Ntp492
Rp493
(dp494
g13
S'48'
p495
sbsS'44'
p496
g0
(g9
g2
Ntp497
Rp498
(dp499
g13
S'45'
p500
sbsS'45'
p501
g0
(g9
g2
Ntp502
Rp503
(dp504
g13
S'46'
p505
sbsS'42'
p506
g0
(g9
g2
Ntp507
Rp508
(dp509
g13
S'43'
p510
sbsS'43'
p511
g0
(g9
g2
Ntp512
Rp513
(dp514
g13
S'44'
p515
sbsS'40'
p516
g0
(g9
g2
Ntp517
Rp518
(dp519
g13
S'41'
p520
sbsS'41'
p521
g0
(g9
g2
Ntp522
Rp523
(dp524
g13
S'42'
p525
sbsg64
g0
(g9
g2
Ntp526
Rp527
(dp528
g13
g370
sbsg69
g0
(g9
g2
Ntp529
Rp530
(dp531
g13
g374
sbsg74
g0
(g9
g2
Ntp532
Rp533
(dp534
g13
S'10'
p535
sbsS'77'
p536
g0
(g76
g2
Ntp537
Rp538
(dp539
g80
I26
sg81
I27
sbsS'76'
p540
g0
(g76
g2
Ntp541
Rp542
(dp543
g80
I24
sg81
I25
sbsS'75'
p544
g0
(g76
g2
Ntp545
Rp546
(dp547
g80
I22
sg81
I23
sbsS'74'
p548
g0
(g76
g2
Ntp549
Rp550
(dp551
g80
I20
sg81
I21
sbsS'73'
p552
g0
(g76
g2
Ntp553
Rp554
(dp555
g80
I18
sg81
I19
sbsS'72'
p556
g0
(g76
g2
Ntp557
Rp558
(dp559
g80
I16
sg81
I17
sbsS'71'
p560
g0
(g76
g2
Ntp561
Rp562
(dp563
g80
I14
sg81
I15
sbsS'70'
p564
g0
(g76
g2
Ntp565
Rp566
(dp567
g80
I12
sg81
I13
sbsS'79'
p568
g0
(g76
g2
Ntp569
Rp570
(dp571
g80
I30
sg81
I31
sbsS'78'
p572
g0
(g76
g2
Ntp573
Rp574
(dp575
g80
I28
sg81
I29
sbssb.