ccopy_reg
_reconstructor
p0
(cgame_tree_classes
GameSlots
p1
c__builtin__
object
p2
Ntp3
Rp4
(dp5
S'data'
p6
(dp7
S'60'
p8
g0
(cgame_tree_classes
Team
p9
g2
Ntp10
Rp11
(dp12
S'team_id'
p13
S'61'
p14
sbsS'61'
p15
g0
(g9
g2
Ntp16
Rp17
(dp18
g13
S'62'
p19
sbsS'62'
p20
g0
(g9
g2
Ntp21
Rp22
(dp23
g13
S'63'
p24
sbsS'63'
p25
g0
(g9
g2
Ntp26
Rp27
(dp28
g13
S'64'
p29
sbsS'64'
p30
g0
(g9
g2
Ntp31
Rp32
(dp33
g13
S'1'
p34
sbsS'65'
p35
g0
(g9
g2
Ntp36
Rp37
(dp38
g13
S'3'
p39
sbsS'66'
p40
g0
(g9
g2
Ntp41
Rp42
(dp43
g13
S'5'
p44
sbsS'67'
p45
g0
(g9
g2
Ntp46
Rp47
(dp48
g13
S'7'
p49
sbsS'68'
p50
g0
(g9
g2
Ntp51
Rp52
(dp53
g13
S'10'
p54
sbsS'69'
p55
g0
(g9
g2
Ntp56
Rp57
(dp58
g13
S'11'
p59
sbsS'75'
p60
g0
(g9
g2
Ntp61
Rp62
(dp63
g13
S'23'
p64
sbsS'24'
p65
g0
(g9
g2
Ntp66
Rp67
(dp68
g13
S'25'
p69
sbsS'25'
p70
g0
(g9
g2
Ntp71
Rp72
(dp73
g13
S'26'
p74
sbsS'26'
p75
g0
(g9
g2
Ntp76
Rp77
(dp78
g13
S'27'
p79
sbsS'27'
p80
g0
(g9
g2
Ntp81
Rp82
(dp83
g13
S'28'
p84
sbsS'20'
p85
g0
(g9
g2
Ntp86
Rp87
(dp88
g13
S'21'
p89
sbsS'21'
p90
g0
(g9
g2
Ntp91
Rp92
(dp93
g13
S'22'
p94
sbsS'22'
p95
g62
sS'23'
p96
g0
(g9
g2
Ntp97
Rp98
(dp99
g13
S'24'
p100
sbsS'28'
p101
g0
(g9
g2
Ntp102
Rp103
(dp104
g13
S'29'
p105
sbsS'29'
p106
g0
(g9
g2
Ntp107
Rp108
(dp109
g13
S'30'
p110
sbsS'0'
p111
g32
sS'2'
p112
g37
sS'4'
p113
g42
sS'6'
p114
g47
sS'8'
p115
g0
(g9
g2
Ntp116
Rp117
(dp118
g13
S'9'
p119
sbsS'78'
p120
g103
sS'87'
p121
g0
(g9
g2
Ntp122
Rp123
(dp124
g13
S'47'
p125
sbsS'120'
p126
g0
(cgame_tree_classes
WinnerOf
p127
g2
Ntp128
Rp129
(dp130
S'game_slot1'
p131
I112
sS'game_slot2'
p132
I113
sbsS'121'
p133
g0
(g127
g2
Ntp134
Rp135
(dp136
g131
I114
sg132
I115
sbsS'122'
p137
g0
(g127
g2
Ntp138
Rp139
(dp140
g131
I116
sg132
I117
sbsS'123'
p141
g0
(g127
g2
Ntp142
Rp143
(dp144
g131
I118
sg132
I119
sbsS'124'
p145
g0
(g127
g2
Ntp146
Rp147
(dp148
g131
I120
sg132
I121
sbsS'125'
p149
g0
(g127
g2
Ntp150
Rp151
(dp152
g131
I122
sg132
I123
sbsS'126'
p153
g0
(g127
g2
Ntp154
Rp155
(dp156
g131
I124
sg132
I125
sbsS'91'
p157
g0
(g9
g2
Ntp158
Rp159
(dp160
g13
S'55'
p161
sbsS'90'
p162
g0
(g9
g2
Ntp163
Rp164
(dp165
g13
S'54'
p166
sbsS'93'
p167
g0
(g9
g2
Ntp168
Rp169
(dp170
g13
S'59'
p171
sbsS'92'
p172
g0
(g9
g2
Ntp173
Rp174
(dp175
g13
S'57'
p176
sbsS'95'
p177
g22
sS'94'
p178
g17
sS'97'
p179
g47
sS'96'
p180
g37
sS'11'
p181
g0
(g9
g2
Ntp182
Rp183
(dp184
g13
S'12'
p185
sbsS'10'
p186
g57
sS'13'
p187
g0
(g9
g2
Ntp188
Rp189
(dp190
g13
S'14'
p191
sbsS'12'
p192
g0
(g9
g2
Ntp193
Rp194
(dp195
g13
S'13'
p196
sbsS'59'
p197
g0
(g9
g2
Ntp198
Rp199
(dp200
g13
S'60'
p201
sbsS'58'
p202
g169
sS'17'
p203
g0
(g9
g2
Ntp204
Rp205
(dp206
g13
S'18'
p207
sbsS'16'
p208
g0
(g9
g2
Ntp209
Rp210
(dp211
g13
S'17'
p212
sbsS'55'
p213
g0
(g9
g2
Ntp214
Rp215
(dp216
g13
S'56'
p217
sbsS'54'
p218
g159
sS'57'
p219
g0
(g9
g2
Ntp220
Rp221
(dp222
g13
S'58'
p223
sbsS'56'
p224
g174
sS'51'
p225
g0
(g9
g2
Ntp226
Rp227
(dp228
g13
S'52'
p229
sbsS'50'
p230
g0
(g9
g2
Ntp231
Rp232
(dp233
g13
S'51'
p234
sbsS'53'
p235
g164
sS'52'
p236
g0
(g9
g2
Ntp237
Rp238
(dp239
g13
S'53'
p240
sbsS'19'
p241
g0
(g9
g2
Ntp242
Rp243
(dp244
g13
S'20'
p245
sbsS'116'
p246
g0
(g127
g2
Ntp247
Rp248
(dp249
g131
I104
sg132
I105
sbsS'18'
p250
g0
(g9
g2
Ntp251
Rp252
(dp253
g13
S'19'
p254
sbsS'15'
p255
g0
(g9
g2
Ntp256
Rp257
(dp258
g13
S'16'
p259
sbsS'115'
p260
g0
(g127
g2
Ntp261
Rp262
(dp263
g131
I102
sg132
I103
sbsS'114'
p264
g0
(g127
g2
Ntp265
Rp266
(dp267
g131
I100
sg132
I101
sbsS'88'
p268
g0
(g9
g2
Ntp269
Rp270
(dp271
g13
S'49'
p272
sbsS'89'
p273
g232
sS'111'
p274
g22
sS'110'
p275
g169
sS'113'
p276
g0
(g127
g2
Ntp277
Rp278
(dp279
g131
I98
sg132
I99
sbsS'112'
p280
g0
(g127
g2
Ntp281
Rp282
(dp283
g131
I96
sg132
I97
sbsS'82'
p284
g0
(g9
g2
Ntp285
Rp286
(dp287
g13
S'37'
p288
sbsS'83'
p289
g0
(g9
g2
Ntp290
Rp291
(dp292
g13
S'39'
p293
sbsS'80'
p294
g0
(g9
g2
Ntp295
Rp296
(dp297
g13
S'33'
p298
sbsS'81'
p299
g0
(g9
g2
Ntp300
Rp301
(dp302
g13
S'36'
p303
sbsS'119'
p304
g0
(g127
g2
Ntp305
Rp306
(dp307
g131
I110
sg132
I111
sbsS'118'
p308
g0
(g127
g2
Ntp309
Rp310
(dp311
g131
I108
sg132
I109
sbsS'84'
p312
g0
(g9
g2
Ntp313
Rp314
(dp315
g13
S'42'
p316
sbsS'85'
p317
g0
(g9
g2
Ntp318
Rp319
(dp320
g13
S'43'
p321
sbsS'117'
p322
g0
(g127
g2
Ntp323
Rp324
(dp325
g131
I106
sg132
I107
sbsS'48'
p326
g270
sS'49'
p327
g0
(g9
g2
Ntp328
Rp329
(dp330
g13
S'50'
p331
sbsS'46'
p332
g123
sS'86'
p333
g0
(g9
g2
Ntp334
Rp335
(dp336
g13
S'45'
p337
sbsS'44'
p338
g335
sS'45'
p339
g0
(g9
g2
Ntp340
Rp341
(dp342
g13
S'46'
p343
sbsS'42'
p344
g319
sS'43'
p345
g0
(g9
g2
Ntp346
Rp347
(dp348
g13
S'44'
p349
sbsS'40'
p350
g0
(g9
g2
Ntp351
Rp352
(dp353
g13
S'41'
p354
sbsS'41'
p355
g314
sg34
g0
(g9
g2
Ntp356
Rp357
(dp358
g13
g112
sbsg39
g0
(g9
g2
Ntp359
Rp360
(dp361
g13
g113
sbsg44
g0
(g9
g2
Ntp362
Rp363
(dp364
g13
g114
sbsg49
g0
(g9
g2
Ntp365
Rp366
(dp367
g13
g115
sbsg119
g52
sS'77'
p368
g77
sS'76'
p369
g72
sS'108'
p370
g270
sS'109'
p371
g159
sS'73'
p372
g252
sS'72'
p373
g210
sS'71'
p374
g0
(g9
g2
Ntp375
Rp376
(dp377
g13
S'15'
p378
sbsS'70'
p379
g194
sS'102'
p380
g72
sS'103'
p381
g0
(g9
g2
Ntp382
Rp383
(dp384
g13
S'31'
p385
sbsS'100'
p386
g210
sS'101'
p387
g62
sS'106'
p388
g319
sS'107'
p389
g335
sS'104'
p390
g296
sS'105'
p391
g291
sS'99'
p392
g194
sS'39'
p393
g0
(g9
g2
Ntp394
Rp395
(dp396
g13
S'40'
p397
sbsS'38'
p398
g291
sS'79'
p399
g383
sS'14'
p400
g376
sS'98'
p401
g57
sS'33'
p402
g0
(g9
g2
Ntp403
Rp404
(dp405
g13
S'34'
p406
sbsS'32'
p407
g296
sS'31'
p408
g0
(g9
g2
Ntp409
Rp410
(dp411
g13
S'32'
p412
sbsS'30'
p413
g383
sS'37'
p414
g0
(g9
g2
Ntp415
Rp416
(dp417
g13
S'38'
p418
sbsS'36'
p419
g286
sS'35'
p420
g301
sS'34'
p421
g0
(g9
g2
Ntp422
Rp423
(dp424
g13
S'35'
p425
sbsS'74'
p426
g87
sS'47'
p427
g0
(g9
g2
Ntp428
Rp429
(dp430
g13
S'48'
p431
sbssb.